; Function Attrs: mustprogress nofree norecurse nosync nounwind willreturn memory(read, inaccessiblemem: none) uwtable
define hidden noundef i32 @_ZNK8TypeNode9ideal_regEv(ptr nocapture noundef nonnull readonly align 8 dereferenceable(64) %0) unnamed_addr #3 align 2 {
  %2 = getelementptr inbounds i8, ptr %0, i64 56
  %3 = load ptr, ptr %2, align 8
  %4 = getelementptr inbounds i8, ptr %3, i64 16
  %5 = load i32, ptr %4, align 8
  %6 = zext i32 %5 to i64
  %7 = getelementptr inbounds [0 x %"struct.Type::TypeInfo"], ptr @_ZN4Type10_type_infoE, i64 0, i64 %6, i32 4
  %8 = load i32, ptr %7, align 4
  ret i32 %8
}